; Function Attrs: mustprogress uwtable
define noundef i32 @_ZN32pxrInternal_v0_24__pxrReserved__11TfGetenvIntERKNSt7__cxx1112basic_stringIcSt11char_traitsIcESaIcEEEi(ptr noundef nonnull align 8 dereferenceable(32) %0, i32 noundef %1) local_unnamed_addr #0 personality ptr @__gxx_personality_v0 {
  %3 = alloca ptr, align 8
  %4 = alloca %"class.std::__cxx11::basic_string", align 8
  call void @_ZN32pxrInternal_v0_24__pxrReserved__10ArchGetEnvERKNSt7__cxx1112basic_stringIcSt11char_traitsIcESaIcEEE(ptr dead_on_unwind nonnull writable sret(%"class.std::__cxx11::basic_string") align 8 %4, ptr noundef nonnull align 8 dereferenceable(32) %0)
  %5 = call noundef zeroext i1 @_ZNKSt7__cxx1112basic_stringIcSt11char_traitsIcESaIcEE5emptyEv(ptr noundef nonnull align 8 dereferenceable(32) %4) #8
  br i1 %5, label %30, label %6

6:                                                ; preds = %2
  %7 = call noundef ptr @_ZNKSt7__cxx1112basic_stringIcSt11char_traitsIcESaIcEE5c_strEv(ptr noundef nonnull align 8 dereferenceable(32) %4) #8
  call void @llvm.lifetime.start.p0(i64 8, ptr nonnull %3)
  %8 = tail call ptr @__errno_location() #9
  %9 = load i32, ptr %8, align 4
  store i32 0, ptr %8, align 4
  %10 = call noundef i64 @strtol(ptr noundef %7, ptr noundef nonnull %3, i32 noundef 10)
  %11 = load ptr, ptr %3, align 8
  %12 = icmp eq ptr %11, %7
  br i1 %12, label %13, label %20

13:                                               ; preds = %6
  invoke void @_ZSt24__throw_invalid_argumentPKc(ptr noundef nonnull @.str.4) #10
          to label %14 unwind label %15

14:                                               ; preds = %13
  unreachable

15:                                               ; preds = %.critedge.i.i, %13
  %16 = landingpad { ptr, i32 }
          cleanup
  %17 = load i32, ptr %8, align 4
  %18 = icmp eq i32 %17, 0
  br i1 %18, label %19, label %.body

19:                                               ; preds = %15
  store i32 %9, ptr %8, align 4
  br label %.body

20:                                               ; preds = %6
  %21 = load i32, ptr %8, align 4
  %22 = icmp eq i32 %21, 34
  %23 = add i64 %10, -2147483648
  %24 = icmp ult i64 %23, -4294967296
  %or.cond.i.i = or i1 %24, %22
  br i1 %or.cond.i.i, label %.critedge.i.i, label %26

.critedge.i.i:                                    ; preds = %20
  invoke void @_ZSt20__throw_out_of_rangePKc(ptr noundef nonnull @.str.4) #10
          to label %25 unwind label %15

25:                                               ; preds = %.critedge.i.i
  unreachable

26:                                               ; preds = %20
  %27 = icmp eq i32 %21, 0
  br i1 %27, label %28, label %_ZNSt7__cxx114stoiERKNS_12basic_stringIcSt11char_traitsIcESaIcEEEPmi.exit

28:                                               ; preds = %26
  store i32 %9, ptr %8, align 4
  br label %_ZNSt7__cxx114stoiERKNS_12basic_stringIcSt11char_traitsIcESaIcEEEPmi.exit

_ZNSt7__cxx114stoiERKNS_12basic_stringIcSt11char_traitsIcESaIcEEEPmi.exit: ; preds = %26, %28
  %29 = trunc i64 %10 to i32
  call void @llvm.lifetime.end.p0(i64 8, ptr nonnull %3)
  br label %30

.body:                                            ; preds = %15, %19
  call void @_ZNSt7__cxx1112basic_stringIcSt11char_traitsIcESaIcEED1Ev(ptr noundef nonnull align 8 dereferenceable(32) %4) #8
  resume { ptr, i32 } %16

30:                                               ; preds = %_ZNSt7__cxx114stoiERKNS_12basic_stringIcSt11char_traitsIcESaIcEEEPmi.exit, %2
  %.0 = phi i32 [ %1, %2 ], [ %29, %_ZNSt7__cxx114stoiERKNS_12basic_stringIcSt11char_traitsIcESaIcEEEPmi.exit ]
  call void @_ZNSt7__cxx1112basic_stringIcSt11char_traitsIcESaIcEED1Ev(ptr noundef nonnull align 8 dereferenceable(32) %4) #8
  ret i32 %.0
}